; ModuleID = 'bench/cmake/original/frm_data.c.ll'
source_filename = "bench/cmake/original/frm_data.c.ll"
target datalayout = "e-m:e-p270:32:32-p271:32:32-p272:64:64-i64:64-i128:128-f80:128-n8:16:32:64-S128"
target triple = "x86_64-pc-linux-gnu"

@data_ahead.buffer = internal global [81 x i8] zeroinitializer, align 16

; Function Attrs: mustprogress nofree norecurse nosync nounwind willreturn memory(read, inaccessiblemem: none) uwtable
define dso_local zeroext i1 @data_behind(ptr noundef readonly %0) local_unnamed_addr #0 {
  %.not = icmp eq ptr %0, null
  br i1 %.not, label %24, label %2

2:                                                ; preds = %1
  %3 = load i16, ptr %0, align 8
  %4 = and i16 %3, 1
  %.not10 = icmp eq i16 %4, 0
  br i1 %.not10, label %24, label %5

5:                                                ; preds = %2
  %6 = getelementptr inbounds nuw i8, ptr %0, i64 72
  %7 = load ptr, ptr %6, align 8
  %.not11 = icmp eq ptr %7, null
  br i1 %.not11, label %24, label %8

8:                                                ; preds = %5
  %9 = getelementptr inbounds nuw i8, ptr %7, i64 2
  %10 = load i16, ptr %9, align 2
  %11 = sext i16 %10 to i32
  %12 = getelementptr inbounds nuw i8, ptr %7, i64 24
  %13 = load i32, ptr %12, align 8
  %14 = add nsw i32 %13, %11
  %15 = icmp eq i32 %14, 1
  br i1 %15, label %20, label %16

16:                                               ; preds = %8
  %17 = getelementptr inbounds nuw i8, ptr %0, i64 16
  %18 = load i32, ptr %17, align 8
  %19 = icmp ne i32 %18, 0
  br label %24

20:                                               ; preds = %8
  %21 = getelementptr inbounds nuw i8, ptr %0, i64 20
  %22 = load i32, ptr %21, align 4
  %23 = icmp ne i32 %22, 0
  br label %24

24:                                               ; preds = %16, %20, %5, %2, %1
  %.0.shrunk = phi i1 [ %23, %20 ], [ %19, %16 ], [ false, %5 ], [ false, %2 ], [ false, %1 ]
  ret i1 %.0.shrunk
}

; Function Attrs: nounwind uwtable
define dso_local noundef zeroext i1 @data_ahead(ptr noundef readonly %0) local_unnamed_addr #1 {
  %.not = icmp eq ptr %0, null
  br i1 %.not, label %99, label %2

2:                                                ; preds = %1
  %3 = load i16, ptr %0, align 8
  %4 = and i16 %3, 1
  %.not62 = icmp eq i16 %4, 0
  br i1 %.not62, label %99, label %5

5:                                                ; preds = %2
  %6 = getelementptr inbounds nuw i8, ptr %0, i64 72
  %7 = load ptr, ptr %6, align 8
  %.not63 = icmp eq ptr %7, null
  br i1 %.not63, label %99, label %8

8:                                                ; preds = %5
  %9 = getelementptr inbounds nuw i8, ptr %7, i64 4
  %10 = load i16, ptr %9, align 4
  %11 = icmp sgt i16 %10, 80
  br i1 %11, label %12, label %15

12:                                               ; preds = %8
  %narrow = add nuw i16 %10, 1
  %13 = zext i16 %narrow to i64
  %14 = tail call noalias ptr @malloc(i64 noundef %13) #6
  br label %15

15:                                               ; preds = %8, %12
  %.052 = phi ptr [ %14, %12 ], [ @data_ahead.buffer, %8 ]
  %16 = getelementptr inbounds nuw i8, ptr %7, i64 2
  %17 = load i16, ptr %16, align 2
  %18 = sext i16 %17 to i32
  %19 = getelementptr inbounds nuw i8, ptr %7, i64 24
  %20 = load i32, ptr %19, align 8
  %21 = add nsw i32 %20, %18
  %22 = icmp eq i32 %21, 1
  br i1 %22, label %23, label %58

23:                                               ; preds = %15
  %24 = getelementptr inbounds nuw i8, ptr %0, i64 20
  %25 = load i32, ptr %24, align 4
  %26 = sext i16 %10 to i32
  %27 = add nsw i32 %25, %26
  %28 = getelementptr inbounds nuw i8, ptr %7, i64 16
  %29 = load i32, ptr %28, align 8
  %30 = icmp slt i32 %27, %29
  br i1 %30, label %.lr.ph76, label %.loopexit

.lr.ph76:                                         ; preds = %23
  %31 = getelementptr inbounds nuw i8, ptr %0, i64 56
  %32 = getelementptr inbounds nuw i8, ptr %7, i64 36
  br label %33

33:                                               ; preds = %.lr.ph76, %52
  %34 = phi i16 [ %10, %.lr.ph76 ], [ %53, %52 ]
  %35 = phi i32 [ %29, %.lr.ph76 ], [ %56, %52 ]
  %.05175 = phi i32 [ %27, %.lr.ph76 ], [ %55, %52 ]
  %36 = sub nsw i32 %35, %.05175
  %37 = sext i16 %34 to i32
  %spec.select = tail call i32 @llvm.smin.i32(i32 %36, i32 %37)
  %38 = load ptr, ptr %31, align 8
  %39 = tail call i32 @wmove(ptr noundef %38, i32 noundef 0, i32 noundef %.05175) #7
  %40 = load ptr, ptr %31, align 8
  %41 = tail call i32 @winnstr(ptr noundef %40, ptr noundef %.052, i32 noundef %spec.select) #7
  %42 = load i32, ptr %32, align 4
  %43 = sext i32 %spec.select to i64
  %44 = getelementptr inbounds i8, ptr %.052, i64 %43
  br label %45

45:                                               ; preds = %47, %33
  %.0.i = phi ptr [ %44, %33 ], [ %48, %47 ]
  %46 = icmp ult ptr %.052, %.0.i
  br i1 %46, label %47, label %After_Last_Non_Pad_Position.exit

47:                                               ; preds = %45
  %48 = getelementptr inbounds i8, ptr %.0.i, i64 -1
  %49 = load i8, ptr %48, align 1
  %50 = sext i8 %49 to i32
  %51 = icmp eq i32 %42, %50
  br i1 %51, label %45, label %After_Last_Non_Pad_Position.exit, !llvm.loop !5

After_Last_Non_Pad_Position.exit:                 ; preds = %45, %47
  %.not85.not = icmp ne ptr %.0.i, %.052
  br i1 %.not85.not, label %.loopexit, label %52

52:                                               ; preds = %After_Last_Non_Pad_Position.exit
  %53 = load i16, ptr %9, align 4
  %54 = sext i16 %53 to i32
  %55 = add nsw i32 %.05175, %54
  %56 = load i32, ptr %28, align 8
  %57 = icmp slt i32 %55, %56
  br i1 %57, label %33, label %.loopexit, !llvm.loop !7

58:                                               ; preds = %15
  %59 = getelementptr inbounds nuw i8, ptr %0, i64 16
  %60 = load i32, ptr %59, align 8
  %61 = add nsw i32 %60, %18
  %62 = getelementptr inbounds nuw i8, ptr %7, i64 12
  %63 = load i32, ptr %62, align 4
  %64 = icmp slt i32 %61, %63
  br i1 %64, label %.lr.ph, label %.loopexit

.lr.ph:                                           ; preds = %58
  %65 = getelementptr inbounds nuw i8, ptr %0, i64 56
  %66 = getelementptr inbounds nuw i8, ptr %7, i64 36
  br label %70

67:                                               ; preds = %After_Last_Non_Pad_Position.exit67
  %68 = load i32, ptr %62, align 4
  %69 = icmp slt i32 %73, %68
  br i1 %69, label %70, label %.loopexit, !llvm.loop !8

70:                                               ; preds = %.lr.ph, %67
  %.171 = phi i32 [ %61, %.lr.ph ], [ %73, %67 ]
  %71 = load ptr, ptr %65, align 8
  %72 = tail call i32 @wmove(ptr noundef %71, i32 noundef %.171, i32 noundef 0) #7
  %73 = add nsw i32 %.171, 1
  %74 = load ptr, ptr %65, align 8
  %75 = load i16, ptr %9, align 4
  %76 = sext i16 %75 to i32
  %77 = tail call i32 @winnstr(ptr noundef %74, ptr noundef %.052, i32 noundef %76) #7
  %78 = load i16, ptr %9, align 4
  %79 = load i32, ptr %66, align 4
  %80 = sext i16 %78 to i64
  %81 = getelementptr inbounds i8, ptr %.052, i64 %80
  br label %82

82:                                               ; preds = %84, %70
  %.0.i66 = phi ptr [ %81, %70 ], [ %85, %84 ]
  %83 = icmp ult ptr %.052, %.0.i66
  br i1 %83, label %84, label %After_Last_Non_Pad_Position.exit67

84:                                               ; preds = %82
  %85 = getelementptr inbounds i8, ptr %.0.i66, i64 -1
  %86 = load i8, ptr %85, align 1
  %87 = sext i8 %86 to i32
  %88 = icmp eq i32 %79, %87
  br i1 %88, label %82, label %After_Last_Non_Pad_Position.exit67, !llvm.loop !5

After_Last_Non_Pad_Position.exit67:               ; preds = %82, %84
  %.not64.not.not = icmp ne ptr %.0.i66, %.052
  br i1 %.not64.not.not, label %.loopexit, label %67, !llvm.loop !8

.loopexit:                                        ; preds = %67, %After_Last_Non_Pad_Position.exit67, %52, %After_Last_Non_Pad_Position.exit, %58, %23
  %.156 = phi i1 [ false, %23 ], [ false, %58 ], [ %.not85.not, %After_Last_Non_Pad_Position.exit ], [ %.not85.not, %52 ], [ %.not64.not.not, %After_Last_Non_Pad_Position.exit67 ], [ %.not64.not.not, %67 ]
  %.154 = phi i1 [ false, %23 ], [ false, %58 ], [ true, %After_Last_Non_Pad_Position.exit ], [ true, %52 ], [ true, %After_Last_Non_Pad_Position.exit67 ], [ true, %67 ]
  br i1 %11, label %89, label %90

89:                                               ; preds = %.loopexit
  tail call void @free(ptr noundef %.052) #7
  br label %90

90:                                               ; preds = %89, %.loopexit
  br i1 %.154, label %91, label %99

91:                                               ; preds = %90
  %92 = getelementptr inbounds nuw i8, ptr %0, i64 56
  %93 = load ptr, ptr %92, align 8
  %94 = getelementptr inbounds nuw i8, ptr %0, i64 8
  %95 = load i32, ptr %94, align 8
  %96 = getelementptr inbounds nuw i8, ptr %0, i64 12
  %97 = load i32, ptr %96, align 4
  %98 = tail call i32 @wmove(ptr noundef %93, i32 noundef %95, i32 noundef %97) #7
  br label %99

99:                                               ; preds = %90, %91, %5, %2, %1
  %.055 = phi i1 [ %.156, %91 ], [ %.156, %90 ], [ false, %5 ], [ false, %2 ], [ false, %1 ]
  ret i1 %.055
}

; Function Attrs: mustprogress nofree nounwind willreturn allockind("alloc,uninitialized") allocsize(0) memory(inaccessiblemem: readwrite)
declare noalias noundef ptr @malloc(i64 noundef) local_unnamed_addr #2

declare i32 @wmove(ptr noundef, i32 noundef, i32 noundef) local_unnamed_addr #3

declare i32 @winnstr(ptr noundef, ptr noundef, i32 noundef) local_unnamed_addr #3

; Function Attrs: mustprogress nounwind willreturn allockind("free") memory(argmem: readwrite, inaccessiblemem: readwrite)
declare void @free(ptr allocptr noundef captures(none)) local_unnamed_addr #4

; Function Attrs: nocallback nofree nosync nounwind speculatable willreturn memory(none)
declare i32 @llvm.smin.i32(i32, i32) #5


!llvm.module.flags = !{!0, !1, !2, !3, !4}

!0 = !{i32 1, !"wchar_size", i32 4}
!1 = !{i32 8, !"PIC Level", i32 2}
!2 = !{i32 7, !"PIE Level", i32 2}
!3 = !{i32 7, !"uwtable", i32 2}
!4 = !{i32 7, !"frame-pointer", i32 2}
!5 = distinct !{!5, !6}
!6 = !{!"llvm.loop.mustprogress"}
!7 = distinct !{!7, !6}
!8 = distinct !{!8, !6}
